
a.out:     file format elf64-x86-64


Disassembly of section .init:

0000000000001000 <_init>:
    1000:	f3 0f 1e fa          	endbr64 
    1004:	48 83 ec 08          	sub    $0x8,%rsp
    1008:	48 8b 05 d9 2f 00 00 	mov    0x2fd9(%rip),%rax        # 3fe8 <__gmon_start__>
    100f:	48 85 c0             	test   %rax,%rax
    1012:	74 02                	je     1016 <_init+0x16>
    1014:	ff d0                	callq  *%rax
    1016:	48 83 c4 08          	add    $0x8,%rsp
    101a:	c3                   	retq   

Disassembly of section .plt:

0000000000001020 <.plt>:
    1020:	ff 35 92 2f 00 00    	pushq  0x2f92(%rip)        # 3fb8 <_GLOBAL_OFFSET_TABLE_+0x8>
    1026:	f2 ff 25 93 2f 00 00 	bnd jmpq *0x2f93(%rip)        # 3fc0 <_GLOBAL_OFFSET_TABLE_+0x10>
    102d:	0f 1f 00             	nopl   (%rax)
    1030:	f3 0f 1e fa          	endbr64 
    1034:	68 00 00 00 00       	pushq  $0x0
    1039:	f2 e9 e1 ff ff ff    	bnd jmpq 1020 <.plt>
    103f:	90                   	nop
    1040:	f3 0f 1e fa          	endbr64 
    1044:	68 01 00 00 00       	pushq  $0x1
    1049:	f2 e9 d1 ff ff ff    	bnd jmpq 1020 <.plt>
    104f:	90                   	nop

Disassembly of section .plt.got:

0000000000001050 <__cxa_finalize@plt>:
    1050:	f3 0f 1e fa          	endbr64 
    1054:	f2 ff 25 9d 2f 00 00 	bnd jmpq *0x2f9d(%rip)        # 3ff8 <__cxa_finalize@GLIBC_2.2.5>
    105b:	0f 1f 44 00 00       	nopl   0x0(%rax,%rax,1)

Disassembly of section .plt.sec:

0000000000001060 <puts@plt>:
    1060:	f3 0f 1e fa          	endbr64 
    1064:	f2 ff 25 5d 2f 00 00 	bnd jmpq *0x2f5d(%rip)        # 3fc8 <puts@GLIBC_2.2.5>
    106b:	0f 1f 44 00 00       	nopl   0x0(%rax,%rax,1)

0000000000001070 <__stack_chk_fail@plt>:
    1070:	f3 0f 1e fa          	endbr64 
    1074:	f2 ff 25 55 2f 00 00 	bnd jmpq *0x2f55(%rip)        # 3fd0 <__stack_chk_fail@GLIBC_2.4>
    107b:	0f 1f 44 00 00       	nopl   0x0(%rax,%rax,1)

Disassembly of section .text:

0000000000001080 <_start>:
    1080:	f3 0f 1e fa          	endbr64 
    1084:	31 ed                	xor    %ebp,%ebp
    1086:	49 89 d1             	mov    %rdx,%r9
    1089:	5e                   	pop    %rsi
    108a:	48 89 e2             	mov    %rsp,%rdx
    108d:	48 83 e4 f0          	and    $0xfffffffffffffff0,%rsp
    1091:	50                   	push   %rax
    1092:	54                   	push   %rsp
    1093:	45 31 c0             	xor    %r8d,%r8d
    1096:	31 c9                	xor    %ecx,%ecx
    1098:	48 8d 3d 1a 01 00 00 	lea    0x11a(%rip),%rdi        # 11b9 <main>
    109f:	ff 15 33 2f 00 00    	callq  *0x2f33(%rip)        # 3fd8 <__libc_start_main@GLIBC_2.34>
    10a5:	f4                   	hlt    
    10a6:	66 2e 0f 1f 84 00 00 	nopw   %cs:0x0(%rax,%rax,1)
    10ad:	00 00 00 

00000000000010b0 <deregister_tm_clones>:
    10b0:	48 8d 3d 59 2f 00 00 	lea    0x2f59(%rip),%rdi        # 4010 <__TMC_END__>
    10b7:	48 8d 05 52 2f 00 00 	lea    0x2f52(%rip),%rax        # 4010 <__TMC_END__>
    10be:	48 39 f8             	cmp    %rdi,%rax
    10c1:	74 15                	je     10d8 <deregister_tm_clones+0x28>
    10c3:	48 8b 05 16 2f 00 00 	mov    0x2f16(%rip),%rax        # 3fe0 <_ITM_deregisterTMCloneTable>
    10ca:	48 85 c0             	test   %rax,%rax
    10cd:	74 09                	je     10d8 <deregister_tm_clones+0x28>
    10cf:	ff e0                	jmpq   *%rax
    10d1:	0f 1f 80 00 00 00 00 	nopl   0x0(%rax)
    10d8:	c3                   	retq   
    10d9:	0f 1f 80 00 00 00 00 	nopl   0x0(%rax)

00000000000010e0 <register_tm_clones>:
    10e0:	48 8d 3d 29 2f 00 00 	lea    0x2f29(%rip),%rdi        # 4010 <__TMC_END__>
    10e7:	48 8d 35 22 2f 00 00 	lea    0x2f22(%rip),%rsi        # 4010 <__TMC_END__>
    10ee:	48 29 fe             	sub    %rdi,%rsi
    10f1:	48 89 f0             	mov    %rsi,%rax
    10f4:	48 c1 ee 3f          	shr    $0x3f,%rsi
    10f8:	48 c1 f8 03          	sar    $0x3,%rax
    10fc:	48 01 c6             	add    %rax,%rsi
    10ff:	48 d1 fe             	sar    %rsi
    1102:	74 14                	je     1118 <register_tm_clones+0x38>
    1104:	48 8b 05 e5 2e 00 00 	mov    0x2ee5(%rip),%rax        # 3ff0 <_ITM_registerTMCloneTable>
    110b:	48 85 c0             	test   %rax,%rax
    110e:	74 08                	je     1118 <register_tm_clones+0x38>
    1110:	ff e0                	jmpq   *%rax
    1112:	66 0f 1f 44 00 00    	nopw   0x0(%rax,%rax,1)
    1118:	c3                   	retq   
    1119:	0f 1f 80 00 00 00 00 	nopl   0x0(%rax)

0000000000001120 <__do_global_dtors_aux>:
    1120:	f3 0f 1e fa          	endbr64 
    1124:	80 3d e5 2e 00 00 00 	cmpb   $0x0,0x2ee5(%rip)        # 4010 <__TMC_END__>
    112b:	75 2b                	jne    1158 <__do_global_dtors_aux+0x38>
    112d:	55                   	push   %rbp
    112e:	48 83 3d c2 2e 00 00 	cmpq   $0x0,0x2ec2(%rip)        # 3ff8 <__cxa_finalize@GLIBC_2.2.5>
    1135:	00 
    1136:	48 89 e5             	mov    %rsp,%rbp
    1139:	74 0c                	je     1147 <__do_global_dtors_aux+0x27>
    113b:	48 8b 3d c6 2e 00 00 	mov    0x2ec6(%rip),%rdi        # 4008 <__dso_handle>
    1142:	e8 09 ff ff ff       	callq  1050 <__cxa_finalize@plt>
    1147:	e8 64 ff ff ff       	callq  10b0 <deregister_tm_clones>
    114c:	c6 05 bd 2e 00 00 01 	movb   $0x1,0x2ebd(%rip)        # 4010 <__TMC_END__>
    1153:	5d                   	pop    %rbp
    1154:	c3                   	retq   
    1155:	0f 1f 00             	nopl   (%rax)
    1158:	c3                   	retq   
    1159:	0f 1f 80 00 00 00 00 	nopl   0x0(%rax)

0000000000001160 <frame_dummy>:
    1160:	f3 0f 1e fa          	endbr64 
    1164:	e9 77 ff ff ff       	jmpq   10e0 <register_tm_clones>

0000000000001169 <foo>:
    1169:	f3 0f 1e fa          	endbr64 
    116d:	55                   	push   %rbp
    116e:	48 89 e5             	mov    %rsp,%rbp
    1171:	48 83 ec 20          	sub    $0x20,%rsp
    1175:	64 48 8b 04 25 28 00 	mov    %fs:0x28,%rax
    117c:	00 00 
    117e:	48 89 45 f8          	mov    %rax,-0x8(%rbp)
    1182:	31 c0                	xor    %eax,%eax
    1184:	48 8d 45 ec          	lea    -0x14(%rbp),%rax
    1188:	48 83 c0 1c          	add    $0x1c,%rax
    118c:	48 89 45 f0          	mov    %rax,-0x10(%rbp)
    1190:	48 8b 45 f0          	mov    -0x10(%rbp),%rax
    1194:	48 8b 00             	mov    (%rax),%rax
    1197:	48 8d 50 0c          	lea    0xc(%rax),%rdx
    119b:	48 8b 45 f0          	mov    -0x10(%rbp),%rax
    119f:	48 89 10             	mov    %rdx,(%rax)
    11a2:	90                   	nop
    11a3:	48 8b 45 f8          	mov    -0x8(%rbp),%rax
    11a7:	64 48 33 04 25 28 00 	xor    %fs:0x28,%rax
    11ae:	00 00 
    11b0:	74 05                	je     11b7 <foo+0x4e>
    11b2:	e8 b9 fe ff ff       	callq  1070 <__stack_chk_fail@plt>
    11b7:	c9                   	leaveq 
    11b8:	c3                   	retq   

00000000000011b9 <main>:
    11b9:	f3 0f 1e fa          	endbr64 
    11bd:	55                   	push   %rbp
    11be:	48 89 e5             	mov    %rsp,%rbp
    11c1:	b8 00 00 00 00       	mov    $0x0,%eax
    11c6:	e8 9e ff ff ff       	callq  1169 <foo>
    11cb:	48 8d 3d 32 0e 00 00 	lea    0xe32(%rip),%rdi        # 2004 <_IO_stdin_used+0x4>
    11d2:	e8 89 fe ff ff       	callq  1060 <puts@plt>
    11d7:	48 8d 3d 38 0e 00 00 	lea    0xe38(%rip),%rdi        # 2016 <_IO_stdin_used+0x16>
    11de:	e8 7d fe ff ff       	callq  1060 <puts@plt>
    11e3:	b8 00 00 00 00       	mov    $0x0,%eax
    11e8:	5d                   	pop    %rbp
    11e9:	c3                   	retq   

Disassembly of section .fini:

00000000000011ec <_fini>:
    11ec:	f3 0f 1e fa          	endbr64 
    11f0:	48 83 ec 08          	sub    $0x8,%rsp
    11f4:	48 83 c4 08          	add    $0x8,%rsp
    11f8:	c3                   	retq   
